target datalayout = "e-m:e-p270:32:32-p271:32:32-p272:64:64-i64:64-i128:128-f80:128-n8:16:32:64-S128"
target triple = "x86_64-pc-linux-gnu"

%struct.FFJXLMetadata = type { i32, i32, i32, i32, i32, i32, i32, %struct.AVRational, i32, i32, i32, i32, i32, i32, i32, i32 }
%struct.AVRational = type { i32, i32 }
%struct.AVProbeData = type { ptr, ptr, i32, ptr }
%struct.AVFormatContext = type { ptr, ptr, ptr, ptr, ptr, i32, i32, ptr, i32, ptr, i32, ptr, ptr, i64, i64, i64, i32, i32, i32, i64, i64, ptr, i32, i32, ptr, i32, i32, i32, i32, ptr, i64, i32, i32, %struct.AVIOInterruptCB, i32, i32, i32, i32, i64, i32, i32, i32, i32, i32, i32, i32, i32, i32, i32, i32, i32, i64, i32, i32, i32, i32, i32, ptr, ptr, ptr, ptr, i32, ptr, ptr, ptr, ptr, i32, ptr, ptr, i64, ptr, ptr, ptr, i64 }
%struct.AVIOInterruptCB = type { ptr, ptr }
%struct.JXLAnimDemuxContext = type { ptr }
%struct.AVBufferRef = type { ptr, ptr, i64 }
%struct.AVStream = type { ptr, i32, i32, ptr, ptr, %struct.AVRational, i64, i64, i64, i32, i32, %struct.AVRational, ptr, %struct.AVRational, %struct.AVPacket, i32, %struct.AVRational, i32 }
%struct.AVPacket = type { ptr, i64, i64, ptr, i32, i32, i32, ptr, i32, i64, i64, ptr, ptr, %struct.AVRational }
%struct.AVCodecParameters = type { i32, i32, i32, ptr, i32, ptr, i32, i32, i64, i32, i32, i32, i32, i32, i32, %struct.AVRational, %struct.AVRational, i32, i32, i32, i32, i32, i32, i32, %struct.AVChannelLayout, i32, i32, i32, i32, i32, i32 }
%struct.AVChannelLayout = type { i32, i32, %union.anon, ptr }
%union.anon = type { i64 }
%struct.FFStream = type { %struct.AVStream, ptr, i32, ptr, i32, ptr, i32, %struct.anon, i32, i32, %struct.FFFrac, ptr, ptr, i32, i32, i64, i64, i32, i32, i32, i64, i64, i64, i32, i64, i64, i64, i32, i32, [17 x i64], [17 x i8], [17 x i64], i64, i8, i8, %struct.AVRational, %struct.AVProbeData, ptr, i64, i32, i32, i32, ptr, i32, i32, i64, i64, ptr, %struct.AVRational }
%struct.anon = type { ptr, i32 }
%struct.FFFrac = type { i64, i64, i64 }

; Function Attrs: alwaysinline nounwind uwtable
define internal ptr @ffstream(ptr noundef %0) #5 {
  %2 = alloca ptr, align 8
  store ptr %0, ptr %2, align 8, !tbaa !48
  %3 = load ptr, ptr %2, align 8, !tbaa !48
  ret ptr %3
}

; Function Attrs: nounwind uwtable
define internal i32 @jpegxl_anim_read_header(ptr noundef %0) #0 {
  %2 = alloca i32, align 4
  %3 = alloca ptr, align 8
  %4 = alloca ptr, align 8
  %5 = alloca ptr, align 8
  %6 = alloca ptr, align 8
  %7 = alloca [320 x i8], align 16
  %8 = alloca i32, align 4
  %9 = alloca i32, align 4
  %10 = alloca i32, align 4
  %11 = alloca %struct.FFJXLMetadata, align 4
  %12 = alloca i64, align 8
  %13 = alloca i32, align 4
  %14 = alloca i64, align 8
  %15 = alloca i32, align 4
  %16 = alloca [4096 x i8], align 16
  %17 = alloca i32, align 4
  store ptr %0, ptr %3, align 8, !tbaa !19
  call void @llvm.lifetime.start.p0(i64 8, ptr %4) #6
  %18 = load ptr, ptr %3, align 8, !tbaa !19
  %19 = getelementptr inbounds nuw %struct.AVFormatContext, ptr %18, i32 0, i32 3
  %20 = load ptr, ptr %19, align 8, !tbaa !21
  store ptr %20, ptr %4, align 8, !tbaa !36
  call void @llvm.lifetime.start.p0(i64 8, ptr %5) #6
  %21 = load ptr, ptr %3, align 8, !tbaa !19
  %22 = getelementptr inbounds nuw %struct.AVFormatContext, ptr %21, i32 0, i32 4
  %23 = load ptr, ptr %22, align 8, !tbaa !38
  store ptr %23, ptr %5, align 8, !tbaa !39
  call void @llvm.lifetime.start.p0(i64 8, ptr %6) #6
  call void @llvm.lifetime.start.p0(i64 320, ptr %7) #6
  call void @llvm.lifetime.start.p0(i64 4, ptr %8) #6
  store i32 256, ptr %8, align 4, !tbaa !9
  call void @llvm.lifetime.start.p0(i64 4, ptr %9) #6
  store i32 0, ptr %9, align 4, !tbaa !9
  call void @llvm.lifetime.start.p0(i64 4, ptr %10) #6
  call void @llvm.lifetime.start.p0(i64 68, ptr %11) #6
  call void @llvm.memset.p0.i64(ptr align 4 %11, i8 0, i64 68, i1 false)
  call void @llvm.lifetime.start.p0(i64 8, ptr %12) #6
  %24 = load ptr, ptr %5, align 8, !tbaa !39
  %25 = call i32 @avio_rl16(ptr noundef %24)
  %26 = zext i32 %25 to i64
  store i64 %26, ptr %12, align 8, !tbaa !40
  %27 = load i64, ptr %12, align 8, !tbaa !40
  %28 = icmp eq i64 %27, 2815
  br i1 %28, label %29, label %65

29:                                               ; preds = %1
  %30 = load i64, ptr %12, align 8, !tbaa !40
  %31 = trunc i64 %30 to i16
  %32 = getelementptr inbounds [320 x i8], ptr %7, i64 0, i64 0
  store i16 %31, ptr %32, align 16, !tbaa !14
  %33 = load ptr, ptr %3, align 8, !tbaa !19
  %34 = getelementptr inbounds nuw %struct.AVFormatContext, ptr %33, i32 0, i32 4
  %35 = load ptr, ptr %34, align 8, !tbaa !38
  %36 = getelementptr inbounds [320 x i8], ptr %7, i64 0, i64 0
  %37 = getelementptr inbounds i8, ptr %36, i64 2
  %38 = call i32 @avio_read(ptr noundef %35, ptr noundef %37, i32 noundef 254)
  store i32 %38, ptr %9, align 4, !tbaa !9
  %39 = load i32, ptr %9, align 4, !tbaa !9
  %40 = icmp slt i32 %39, 0
  br i1 %40, label %41, label %43

41:                                               ; preds = %29
  %42 = load i32, ptr %9, align 4, !tbaa !9
  store i32 %42, ptr %2, align 4
  store i32 1, ptr %13, align 4
  br label %216

43:                                               ; preds = %29
  %44 = load i32, ptr %9, align 4, !tbaa !9
  %45 = add nsw i32 %44, 2
  store i32 %45, ptr %9, align 4, !tbaa !9
  %46 = load i32, ptr %9, align 4, !tbaa !9
  %47 = sext i32 %46 to i64
  %48 = call ptr @av_buffer_alloc(i64 noundef %47)
  %49 = load ptr, ptr %4, align 8, !tbaa !36
  %50 = getelementptr inbounds nuw %struct.JXLAnimDemuxContext, ptr %49, i32 0, i32 0
  store ptr %48, ptr %50, align 8, !tbaa !41
  %51 = load ptr, ptr %4, align 8, !tbaa !36
  %52 = getelementptr inbounds nuw %struct.JXLAnimDemuxContext, ptr %51, i32 0, i32 0
  %53 = load ptr, ptr %52, align 8, !tbaa !41
  %54 = icmp ne ptr %53, null
  br i1 %54, label %56, label %55

55:                                               ; preds = %43
  store i32 -12, ptr %2, align 4
  store i32 1, ptr %13, align 4
  br label %216

56:                                               ; preds = %43
  %57 = load ptr, ptr %4, align 8, !tbaa !36
  %58 = getelementptr inbounds nuw %struct.JXLAnimDemuxContext, ptr %57, i32 0, i32 0
  %59 = load ptr, ptr %58, align 8, !tbaa !41
  %60 = getelementptr inbounds nuw %struct.AVBufferRef, ptr %59, i32 0, i32 1
  %61 = load ptr, ptr %60, align 8, !tbaa !44
  %62 = getelementptr inbounds [320 x i8], ptr %7, i64 0, i64 0
  %63 = load i32, ptr %9, align 4, !tbaa !9
  %64 = sext i32 %63 to i64
  call void @llvm.memcpy.p0.p0.i64(ptr align 1 %61, ptr align 16 %62, i64 %64, i1 false)
  br label %176

65:                                               ; preds = %1
  call void @llvm.lifetime.start.p0(i64 8, ptr %14) #6
  %66 = load ptr, ptr %5, align 8, !tbaa !39
  %67 = call i64 @avio_rl64(ptr noundef %66)
  store i64 %67, ptr %14, align 8, !tbaa !40
  %68 = load i64, ptr %14, align 8, !tbaa !40
  %69 = shl i64 %68, 16
  %70 = load i64, ptr %12, align 8, !tbaa !40
  %71 = or i64 %69, %70
  store i64 %71, ptr %14, align 8, !tbaa !40
  %72 = load i64, ptr %14, align 8, !tbaa !40
  %73 = icmp ne i64 %72, 2327332182495854592
  br i1 %73, label %74, label %75

74:                                               ; preds = %65
  store i32 -1094995529, ptr %2, align 4
  store i32 1, ptr %13, align 4
  br label %173

75:                                               ; preds = %65
  %76 = load ptr, ptr %5, align 8, !tbaa !39
  %77 = call i64 @avio_skip(ptr noundef %76, i64 noundef 2)
  br label %78

78:                                               ; preds = %171, %75
  br label %79

79:                                               ; preds = %78
  call void @llvm.lifetime.start.p0(i64 4, ptr %15) #6
  store i32 0, ptr %15, align 4, !tbaa !9
  call void @llvm.lifetime.start.p0(i64 4096, ptr %16) #6
  call void @llvm.lifetime.start.p0(i64 4, ptr %17) #6
  %80 = load ptr, ptr %5, align 8, !tbaa !39
  %81 = getelementptr inbounds [4096 x i8], ptr %16, i64 0, i64 0
  %82 = call i32 @avio_read(ptr noundef %80, ptr noundef %81, i32 noundef 4096)
  store i32 %82, ptr %17, align 4, !tbaa !9
  %83 = load i32, ptr %17, align 4, !tbaa !9
  %84 = icmp slt i32 %83, 0
  br i1 %84, label %85, label %87

85:                                               ; preds = %79
  %86 = load i32, ptr %17, align 4, !tbaa !9
  store i32 %86, ptr %2, align 4
  store i32 1, ptr %13, align 4
  br label %169

87:                                               ; preds = %79
  %88 = load ptr, ptr %4, align 8, !tbaa !36
  %89 = getelementptr inbounds nuw %struct.JXLAnimDemuxContext, ptr %88, i32 0, i32 0
  %90 = load ptr, ptr %89, align 8, !tbaa !41
  %91 = icmp ne ptr %90, null
  br i1 %91, label %116, label %92

92:                                               ; preds = %87
  %93 = load i32, ptr %17, align 4, !tbaa !9
  %94 = add nsw i32 %93, 12
  %95 = sext i32 %94 to i64
  %96 = call ptr @av_buffer_alloc(i64 noundef %95)
  %97 = load ptr, ptr %4, align 8, !tbaa !36
  %98 = getelementptr inbounds nuw %struct.JXLAnimDemuxContext, ptr %97, i32 0, i32 0
  store ptr %96, ptr %98, align 8, !tbaa !41
  %99 = load ptr, ptr %4, align 8, !tbaa !36
  %100 = getelementptr inbounds nuw %struct.JXLAnimDemuxContext, ptr %99, i32 0, i32 0
  %101 = load ptr, ptr %100, align 8, !tbaa !41
  %102 = icmp ne ptr %101, null
  br i1 %102, label %104, label %103

103:                                              ; preds = %92
  store i32 -12, ptr %2, align 4
  store i32 1, ptr %13, align 4
  br label %169

104:                                              ; preds = %92
  %105 = load ptr, ptr %4, align 8, !tbaa !36
  %106 = getelementptr inbounds nuw %struct.JXLAnimDemuxContext, ptr %105, i32 0, i32 0
  %107 = load ptr, ptr %106, align 8, !tbaa !41
  %108 = getelementptr inbounds nuw %struct.AVBufferRef, ptr %107, i32 0, i32 1
  %109 = load ptr, ptr %108, align 8, !tbaa !44
  store i64 2327332182495854592, ptr %109, align 1, !tbaa !14
  %110 = load ptr, ptr %4, align 8, !tbaa !36
  %111 = getelementptr inbounds nuw %struct.JXLAnimDemuxContext, ptr %110, i32 0, i32 0
  %112 = load ptr, ptr %111, align 8, !tbaa !41
  %113 = getelementptr inbounds nuw %struct.AVBufferRef, ptr %112, i32 0, i32 1
  %114 = load ptr, ptr %113, align 8, !tbaa !44
  %115 = getelementptr inbounds i8, ptr %114, i64 8
  store i32 176622093, ptr %115, align 1, !tbaa !14
  br label %131

116:                                              ; preds = %87
  %117 = load ptr, ptr %4, align 8, !tbaa !36
  %118 = getelementptr inbounds nuw %struct.JXLAnimDemuxContext, ptr %117, i32 0, i32 0
  %119 = load ptr, ptr %4, align 8, !tbaa !36
  %120 = getelementptr inbounds nuw %struct.JXLAnimDemuxContext, ptr %119, i32 0, i32 0
  %121 = load ptr, ptr %120, align 8, !tbaa !41
  %122 = getelementptr inbounds nuw %struct.AVBufferRef, ptr %121, i32 0, i32 2
  %123 = load i64, ptr %122, align 8, !tbaa !47
  %124 = load i32, ptr %17, align 4, !tbaa !9
  %125 = sext i32 %124 to i64
  %126 = add i64 %123, %125
  %127 = call i32 @av_buffer_realloc(ptr noundef %118, i64 noundef %126)
  %128 = icmp slt i32 %127, 0
  br i1 %128, label %129, label %130

129:                                              ; preds = %116
  store i32 -12, ptr %2, align 4
  store i32 1, ptr %13, align 4
  br label %169

130:                                              ; preds = %116
  br label %131

131:                                              ; preds = %130, %104
  %132 = getelementptr inbounds [4096 x i8], ptr %16, i64 0, i64 0
  %133 = load i32, ptr %17, align 4, !tbaa !9
  %134 = getelementptr inbounds [320 x i8], ptr %7, i64 0, i64 0
  %135 = load i32, ptr %9, align 4, !tbaa !9
  %136 = sext i32 %135 to i64
  %137 = getelementptr inbounds i8, ptr %134, i64 %136
  %138 = load i32, ptr %9, align 4, !tbaa !9
  %139 = sub nsw i32 256, %138
  %140 = call i32 @ff_jpegxl_collect_codestream_header(ptr noundef %132, i32 noundef %133, ptr noundef %137, i32 noundef %139, ptr noundef %15)
  %141 = load ptr, ptr %4, align 8, !tbaa !36
  %142 = getelementptr inbounds nuw %struct.JXLAnimDemuxContext, ptr %141, i32 0, i32 0
  %143 = load ptr, ptr %142, align 8, !tbaa !41
  %144 = getelementptr inbounds nuw %struct.AVBufferRef, ptr %143, i32 0, i32 1
  %145 = load ptr, ptr %144, align 8, !tbaa !44
  %146 = load ptr, ptr %4, align 8, !tbaa !36
  %147 = getelementptr inbounds nuw %struct.JXLAnimDemuxContext, ptr %146, i32 0, i32 0
  %148 = load ptr, ptr %147, align 8, !tbaa !41
  %149 = getelementptr inbounds nuw %struct.AVBufferRef, ptr %148, i32 0, i32 2
  %150 = load i64, ptr %149, align 8, !tbaa !47
  %151 = load i32, ptr %17, align 4, !tbaa !9
  %152 = sext i32 %151 to i64
  %153 = sub i64 %150, %152
  %154 = getelementptr inbounds nuw i8, ptr %145, i64 %153
  %155 = getelementptr inbounds [4096 x i8], ptr %16, i64 0, i64 0
  %156 = load i32, ptr %17, align 4, !tbaa !9
  %157 = sext i32 %156 to i64
  call void @llvm.memcpy.p0.p0.i64(ptr align 1 %154, ptr align 16 %155, i64 %157, i1 false)
  %158 = load i32, ptr %15, align 4, !tbaa !9
  %159 = load i32, ptr %9, align 4, !tbaa !9
  %160 = add nsw i32 %159, %158
  store i32 %160, ptr %9, align 4, !tbaa !9
  %161 = load i32, ptr %9, align 4, !tbaa !9
  %162 = icmp sge i32 %161, 256
  br i1 %162, label %167, label %163

163:                                              ; preds = %131
  %164 = load i32, ptr %17, align 4, !tbaa !9
  %165 = sext i32 %164 to i64
  %166 = icmp ult i64 %165, 4096
  br i1 %166, label %167, label %168

167:                                              ; preds = %163, %131
  store i32 3, ptr %13, align 4
  br label %169

168:                                              ; preds = %163
  store i32 0, ptr %13, align 4
  br label %169

169:                                              ; preds = %168, %167, %129, %103, %85
  call void @llvm.lifetime.end.p0(i64 4, ptr %17) #6
  call void @llvm.lifetime.end.p0(i64 4096, ptr %16) #6
  call void @llvm.lifetime.end.p0(i64 4, ptr %15) #6
  %170 = load i32, ptr %13, align 4
  switch i32 %170, label %173 [
    i32 0, label %171
    i32 3, label %172
  ]

171:                                              ; preds = %169
  br label %78

172:                                              ; preds = %169
  store i32 0, ptr %13, align 4
  br label %173

173:                                              ; preds = %172, %169, %74
  call void @llvm.lifetime.end.p0(i64 8, ptr %14) #6
  %174 = load i32, ptr %13, align 4
  switch i32 %174, label %216 [
    i32 0, label %175
  ]

175:                                              ; preds = %173
  br label %176

176:                                              ; preds = %175, %56
  %177 = getelementptr inbounds [320 x i8], ptr %7, i64 0, i64 0
  %178 = load i32, ptr %9, align 4, !tbaa !9
  %179 = sext i32 %178 to i64
  %180 = getelementptr inbounds i8, ptr %177, i64 %179
  call void @llvm.memset.p0.i64(ptr align 1 %180, i8 0, i64 64, i1 false)
  %181 = getelementptr inbounds [320 x i8], ptr %7, i64 0, i64 0
  %182 = load i32, ptr %9, align 4, !tbaa !9
  %183 = call i32 @ff_jpegxl_parse_codestream_header(ptr noundef %181, i32 noundef %182, ptr noundef %11, i32 noundef 0)
  store i32 %183, ptr %10, align 4, !tbaa !9
  %184 = load i32, ptr %10, align 4, !tbaa !9
  %185 = icmp slt i32 %184, 0
  br i1 %185, label %190, label %186

186:                                              ; preds = %176
  %187 = getelementptr inbounds nuw %struct.FFJXLMetadata, ptr %11, i32 0, i32 6
  %188 = load i32, ptr %187, align 4, !tbaa !16
  %189 = icmp sle i32 %188, 0
  br i1 %189, label %190, label %191

190:                                              ; preds = %186, %176
  store i32 -1094995529, ptr %2, align 4
  store i32 1, ptr %13, align 4
  br label %216

191:                                              ; preds = %186
  %192 = load ptr, ptr %3, align 8, !tbaa !19
  %193 = call ptr @avformat_new_stream(ptr noundef %192, ptr noundef null)
  store ptr %193, ptr %6, align 8, !tbaa !48
  %194 = load ptr, ptr %6, align 8, !tbaa !48
  %195 = icmp ne ptr %194, null
  br i1 %195, label %197, label %196

196:                                              ; preds = %191
  store i32 -12, ptr %2, align 4
  store i32 1, ptr %13, align 4
  br label %216

197:                                              ; preds = %191
  %198 = load ptr, ptr %6, align 8, !tbaa !48
  %199 = getelementptr inbounds nuw %struct.AVStream, ptr %198, i32 0, i32 3
  %200 = load ptr, ptr %199, align 8, !tbaa !50
  %201 = getelementptr inbounds nuw %struct.AVCodecParameters, ptr %200, i32 0, i32 0
  store i32 0, ptr %201, align 8, !tbaa !55
  %202 = load ptr, ptr %6, align 8, !tbaa !48
  %203 = getelementptr inbounds nuw %struct.AVStream, ptr %202, i32 0, i32 3
  %204 = load ptr, ptr %203, align 8, !tbaa !50
  %205 = getelementptr inbounds nuw %struct.AVCodecParameters, ptr %204, i32 0, i32 1
  store i32 272, ptr %205, align 4, !tbaa !58
  %206 = load ptr, ptr %6, align 8, !tbaa !48
  %207 = getelementptr inbounds nuw %struct.FFJXLMetadata, ptr %11, i32 0, i32 7
  %208 = getelementptr inbounds nuw %struct.AVRational, ptr %207, i32 0, i32 0
  %209 = load i32, ptr %208, align 4, !tbaa !59
  %210 = getelementptr inbounds nuw %struct.FFJXLMetadata, ptr %11, i32 0, i32 7
  %211 = getelementptr inbounds nuw %struct.AVRational, ptr %210, i32 0, i32 1
  %212 = load i32, ptr %211, align 4, !tbaa !60
  call void @avpriv_set_pts_info(ptr noundef %206, i32 noundef 1, i32 noundef %209, i32 noundef %212)
  %213 = load ptr, ptr %6, align 8, !tbaa !48
  %214 = call ptr @ffstream(ptr noundef %213)
  %215 = getelementptr inbounds nuw %struct.FFStream, ptr %214, i32 0, i32 41
  store i32 1, ptr %215, align 8, !tbaa !61
  store i32 0, ptr %2, align 4
  store i32 1, ptr %13, align 4
  br label %216

216:                                              ; preds = %197, %196, %190, %173, %55, %41
  call void @llvm.lifetime.end.p0(i64 8, ptr %12) #6
  call void @llvm.lifetime.end.p0(i64 68, ptr %11) #6
  call void @llvm.lifetime.end.p0(i64 4, ptr %10) #6
  call void @llvm.lifetime.end.p0(i64 4, ptr %9) #6
  call void @llvm.lifetime.end.p0(i64 4, ptr %8) #6
  call void @llvm.lifetime.end.p0(i64 320, ptr %7) #6
  call void @llvm.lifetime.end.p0(i64 8, ptr %6) #6
  call void @llvm.lifetime.end.p0(i64 8, ptr %5) #6
  call void @llvm.lifetime.end.p0(i64 8, ptr %4) #6
  %217 = load i32, ptr %2, align 4
  ret i32 %217
}