; Function Attrs: nounwind uwtable
define internal range(i32 -2147483648, 1) i32 @jpegxl_anim_read_header(ptr noundef %0) #0 {
  %2 = alloca [320 x i8], align 16
  %3 = alloca %struct.FFJXLMetadata, align 4
  %4 = alloca i32, align 4
  %5 = alloca [4096 x i8], align 16
  %6 = getelementptr inbounds nuw i8, ptr %0, i64 24
  %7 = load ptr, ptr %6, align 8, !tbaa !14
  %8 = getelementptr inbounds nuw i8, ptr %0, i64 32
  %9 = load ptr, ptr %8, align 8, !tbaa !29
  call void @llvm.lifetime.start.p0(i64 320, ptr nonnull %2) #6
  call void @llvm.lifetime.start.p0(i64 68, ptr nonnull %3) #6
  call void @llvm.memset.p0.i64(ptr noundef nonnull align 4 dereferenceable(68) %3, i8 0, i64 68, i1 false)
  %10 = tail call i32 @avio_rl16(ptr noundef %9) #6
  %11 = icmp eq i32 %10, 2815
  br i1 %11, label %12, label %24

12:                                               ; preds = %1
  store i16 2815, ptr %2, align 16, !tbaa !12
  %13 = load ptr, ptr %8, align 8, !tbaa !29
  %14 = getelementptr inbounds nuw i8, ptr %2, i64 2
  %15 = call i32 @avio_read(ptr noundef %13, ptr noundef nonnull %14, i32 noundef 254) #6
  %16 = icmp slt i32 %15, 0
  br i1 %16, label %.thread88, label %17

17:                                               ; preds = %12
  %18 = add nuw nsw i32 %15, 2
  %19 = zext nneg i32 %18 to i64
  %20 = call ptr @av_buffer_alloc(i64 noundef %19) #6
  store ptr %20, ptr %7, align 8, !tbaa !30
  %.not76 = icmp eq ptr %20, null
  br i1 %.not76, label %.thread88, label %21

21:                                               ; preds = %17
  %22 = getelementptr inbounds nuw i8, ptr %20, i64 8
  %23 = load ptr, ptr %22, align 8, !tbaa !33
  call void @llvm.memcpy.p0.p0.i64(ptr noundef nonnull align 1 dereferenceable(1) %23, ptr noundef nonnull align 16 dereferenceable(1) %2, i64 %19, i1 false)
  br label %.loopexit

24:                                               ; preds = %1
  %25 = zext i32 %10 to i64
  %26 = tail call i64 @avio_rl64(ptr noundef %9) #6
  %27 = shl i64 %26, 16
  %28 = or i64 %27, %25
  %.not = icmp eq i64 %28, 2327332182495854592
  br i1 %.not, label %29, label %.thread88

29:                                               ; preds = %24
  %30 = tail call i64 @avio_skip(ptr noundef %9, i64 noundef 2) #6
  call void @llvm.lifetime.start.p0(i64 4, ptr nonnull %4) #6
  store i32 0, ptr %4, align 4, !tbaa !4
  call void @llvm.lifetime.start.p0(i64 4096, ptr nonnull %5) #6
  %31 = call i32 @avio_read(ptr noundef %9, ptr noundef nonnull %5, i32 noundef 4096) #6
  %32 = icmp slt i32 %31, 0
  br i1 %32, label %.thread, label %.lr.ph

.lr.ph:                                           ; preds = %29, %69
  %33 = phi i32 [ %70, %69 ], [ %31, %29 ]
  %.25993 = phi i32 [ %66, %69 ], [ 0, %29 ]
  %34 = load ptr, ptr %7, align 8, !tbaa !30
  %.not74 = icmp eq ptr %34, null
  br i1 %.not74, label %35, label %46

35:                                               ; preds = %.lr.ph
  %36 = add nuw nsw i32 %33, 12
  %37 = zext nneg i32 %36 to i64
  %38 = call ptr @av_buffer_alloc(i64 noundef %37) #6
  store ptr %38, ptr %7, align 8, !tbaa !30
  %.not75 = icmp eq ptr %38, null
  br i1 %.not75, label %.thread, label %39

39:                                               ; preds = %35
  %40 = getelementptr inbounds nuw i8, ptr %38, i64 8
  %41 = load ptr, ptr %40, align 8, !tbaa !33
  store i64 2327332182495854592, ptr %41, align 1, !tbaa !12
  %42 = load ptr, ptr %7, align 8, !tbaa !30
  %43 = getelementptr inbounds nuw i8, ptr %42, i64 8
  %44 = load ptr, ptr %43, align 8, !tbaa !33
  %45 = getelementptr inbounds nuw i8, ptr %44, i64 8
  store i32 176622093, ptr %45, align 1, !tbaa !12
  %.pre = zext nneg i32 %33 to i64
  br label %53

46:                                               ; preds = %.lr.ph
  %47 = getelementptr inbounds nuw i8, ptr %34, i64 16
  %48 = load i64, ptr %47, align 8, !tbaa !36
  %49 = zext nneg i32 %33 to i64
  %50 = add i64 %48, %49
  %51 = call i32 @av_buffer_realloc(ptr noundef nonnull %7, i64 noundef %50) #6
  %52 = icmp slt i32 %51, 0
  br i1 %52, label %.thread, label %53

53:                                               ; preds = %46, %39
  %.pre-phi = phi i64 [ %49, %46 ], [ %.pre, %39 ]
  %54 = sext i32 %.25993 to i64
  %55 = getelementptr inbounds i8, ptr %2, i64 %54
  %56 = sub nsw i32 256, %.25993
  %57 = call i32 @ff_jpegxl_collect_codestream_header(ptr noundef nonnull %5, i32 noundef %33, ptr noundef nonnull %55, i32 noundef %56, ptr noundef nonnull %4) #6
  %58 = load ptr, ptr %7, align 8, !tbaa !30
  %59 = getelementptr inbounds nuw i8, ptr %58, i64 8
  %60 = load ptr, ptr %59, align 8, !tbaa !33
  %61 = getelementptr inbounds nuw i8, ptr %58, i64 16
  %62 = load i64, ptr %61, align 8, !tbaa !36
  %63 = sub i64 %62, %.pre-phi
  %64 = getelementptr inbounds nuw i8, ptr %60, i64 %63
  call void @llvm.memcpy.p0.p0.i64(ptr align 1 %64, ptr nonnull align 16 %5, i64 %.pre-phi, i1 false)
  %65 = load i32, ptr %4, align 4, !tbaa !4
  %66 = add nsw i32 %65, %.25993
  %67 = icmp sgt i32 %66, 255
  %68 = icmp samesign ult i32 %33, 4096
  %or.cond = or i1 %68, %67
  call void @llvm.lifetime.end.p0(i64 4096, ptr nonnull %5) #6
  call void @llvm.lifetime.end.p0(i64 4, ptr nonnull %4) #6
  br i1 %or.cond, label %.loopexit, label %69

.thread:                                          ; preds = %46, %35, %69, %29
  %.3.ph = phi i32 [ %31, %29 ], [ %70, %69 ], [ -12, %35 ], [ -12, %46 ]
  call void @llvm.lifetime.end.p0(i64 4096, ptr nonnull %5) #6
  call void @llvm.lifetime.end.p0(i64 4, ptr nonnull %4) #6
  br label %.thread88

69:                                               ; preds = %53
  call void @llvm.lifetime.start.p0(i64 4, ptr nonnull %4) #6
  store i32 0, ptr %4, align 4, !tbaa !4
  call void @llvm.lifetime.start.p0(i64 4096, ptr nonnull %5) #6
  %70 = call i32 @avio_read(ptr noundef %9, ptr noundef nonnull %5, i32 noundef 4096) #6
  %71 = icmp slt i32 %70, 0
  br i1 %71, label %.thread, label %.lr.ph

.loopexit:                                        ; preds = %53, %21
  %.057 = phi i32 [ %18, %21 ], [ %66, %53 ]
  %72 = sext i32 %.057 to i64
  %73 = getelementptr inbounds i8, ptr %2, i64 %72
  call void @llvm.memset.p0.i64(ptr noundef nonnull align 1 dereferenceable(64) %73, i8 0, i64 64, i1 false)
  %74 = call i32 @ff_jpegxl_parse_codestream_header(ptr noundef nonnull %2, i32 noundef %.057, ptr noundef nonnull %3, i32 noundef 0) #6
  %75 = icmp slt i32 %74, 0
  %76 = getelementptr inbounds nuw i8, ptr %3, i64 24
  %77 = load i32, ptr %76, align 4
  %78 = icmp slt i32 %77, 1
  %or.cond5 = select i1 %75, i1 true, i1 %78
  br i1 %or.cond5, label %.thread88, label %79

79:                                               ; preds = %.loopexit
  %80 = call ptr @avformat_new_stream(ptr noundef %0, ptr noundef null) #6
  %.not77 = icmp eq ptr %80, null
  br i1 %.not77, label %.thread88, label %81

81:                                               ; preds = %79
  %82 = getelementptr inbounds nuw i8, ptr %80, i64 16
  %83 = load ptr, ptr %82, align 8, !tbaa !37
  store i32 0, ptr %83, align 8, !tbaa !43
  %84 = getelementptr inbounds nuw i8, ptr %83, i64 4
  store i32 272, ptr %84, align 4, !tbaa !46
  %85 = getelementptr inbounds nuw i8, ptr %3, i64 28
  %86 = load i32, ptr %85, align 4, !tbaa !47
  %87 = getelementptr inbounds nuw i8, ptr %3, i64 32
  %88 = load i32, ptr %87, align 4, !tbaa !49
  call void @avpriv_set_pts_info(ptr noundef nonnull %80, i32 noundef 1, i32 noundef %86, i32 noundef %88) #6
  %89 = getelementptr inbounds nuw i8, ptr %80, i64 808
  store i32 1, ptr %89, align 8, !tbaa !50
  br label %.thread88

.thread88:                                        ; preds = %.thread, %24, %79, %.loopexit, %17, %12, %81
  %.0 = phi i32 [ 0, %81 ], [ %15, %12 ], [ -12, %17 ], [ -1094995529, %.loopexit ], [ -12, %79 ], [ %.3.ph, %.thread ], [ -1094995529, %24 ]
  call void @llvm.lifetime.end.p0(i64 68, ptr nonnull %3) #6
  call void @llvm.lifetime.end.p0(i64 320, ptr nonnull %2) #6
  ret i32 %.0
}